; ModuleID = '26/506.cpp'
source_filename = "26/506.cpp"
target datalayout = "e-m:e-p270:32:32-p271:32:32-p272:64:64-i64:64-f80:128-n8:16:32:64-S128"
target triple = "x86_64-pc-linux-gnu"

%"class.std::ios_base::Init" = type { i8 }
%"class.std::basic_istream" = type { i32 (...)**, i64, %"class.std::basic_ios" }
%"class.std::basic_ios" = type { %"class.std::ios_base", %"class.std::basic_ostream"*, i8, i8, %"class.std::basic_streambuf"*, %"class.std::ctype"*, %"class.std::num_put"*, %"class.std::num_get"* }
%"class.std::ios_base" = type { i32 (...)**, i64, i64, i32, i32, i32, %"struct.std::ios_base::_Callback_list"*, %"struct.std::ios_base::_Words", [8 x %"struct.std::ios_base::_Words"], i32, %"struct.std::ios_base::_Words"*, %"class.std::locale" }
%"struct.std::ios_base::_Callback_list" = type { %"struct.std::ios_base::_Callback_list"*, void (i32, %"class.std::ios_base"*, i32)*, i32, i32 }
%"struct.std::ios_base::_Words" = type { i8*, i64 }
%"class.std::locale" = type { %"class.std::locale::_Impl"* }
%"class.std::locale::_Impl" = type { i32, %"class.std::locale::facet"**, i64, %"class.std::locale::facet"**, i8** }
%"class.std::locale::facet" = type <{ i32 (...)**, i32, [4 x i8] }>
%"class.std::basic_ostream" = type { i32 (...)**, %"class.std::basic_ios" }
%"class.std::basic_streambuf" = type { i32 (...)**, i8*, i8*, i8*, i8*, i8*, i8*, %"class.std::locale" }
%"class.std::ctype" = type <{ %"class.std::locale::facet.base", [4 x i8], %struct.__locale_struct*, i8, [7 x i8], i32*, i32*, i16*, i8, [256 x i8], [256 x i8], i8, [6 x i8] }>
%"class.std::locale::facet.base" = type <{ i32 (...)**, i32 }>
%struct.__locale_struct = type { [13 x %struct.__locale_data*], i16*, i32*, i32*, [13 x i8*] }
%struct.__locale_data = type opaque
%"class.std::num_put" = type { %"class.std::locale::facet.base", [4 x i8] }
%"class.std::num_get" = type { %"class.std::locale::facet.base", [4 x i8] }

@_ZStL8__ioinit = internal global %"class.std::ios_base::Init" zeroinitializer, align 1
@__dso_handle = external hidden global i8
@_ZSt3cin = external dso_local global %"class.std::basic_istream", align 8
@_ZSt4cout = external dso_local global %"class.std::basic_ostream", align 8
@llvm.global_ctors = appending global [1 x { i32, void ()*, i8* }] [{ i32, void ()*, i8* } { i32 65535, void ()* @_GLOBAL__sub_I_506.cpp, i8* null }]

; Function Attrs: noinline uwtable
define internal void @__cxx_global_var_init() #0 section ".text.startup" {
  call void @_ZNSt8ios_base4InitC1Ev(%"class.std::ios_base::Init"* @_ZStL8__ioinit)
  %1 = call i32 @__cxa_atexit(void (i8*)* bitcast (void (%"class.std::ios_base::Init"*)* @_ZNSt8ios_base4InitD1Ev to void (i8*)*), i8* getelementptr inbounds (%"class.std::ios_base::Init", %"class.std::ios_base::Init"* @_ZStL8__ioinit, i32 0, i32 0), i8* @__dso_handle) #3
  ret void
}

declare dso_local void @_ZNSt8ios_base4InitC1Ev(%"class.std::ios_base::Init"*) unnamed_addr #1

; Function Attrs: nounwind
declare dso_local void @_ZNSt8ios_base4InitD1Ev(%"class.std::ios_base::Init"*) unnamed_addr #2

; Function Attrs: nounwind
declare dso_local i32 @__cxa_atexit(void (i8*)*, i8*, i8*) #3

; Function Attrs: noinline norecurse uwtable
define dso_local i32 @main() #4 {
  %1 = alloca i32, align 4
  %2 = alloca [101 x i8], align 16
  %3 = alloca i32, align 4
  %4 = alloca i32, align 4
  %5 = alloca i32, align 4
  %6 = alloca i32, align 4
  store i32 0, i32* %1, align 4
  %7 = getelementptr inbounds [101 x i8], [101 x i8]* %2, i64 0, i64 0
  %8 = call dereferenceable(280) %"class.std::basic_istream"* @_ZNSi7getlineEPcl(%"class.std::basic_istream"* @_ZSt3cin, i8* %7, i64 101)
  %9 = getelementptr inbounds [101 x i8], [101 x i8]* %2, i64 0, i64 0
  %10 = call i64 @strlen(i8* %9) #6
  %11 = trunc i64 %10 to i32
  store i32 %11, i32* %3, align 4
  store i32 0, i32* %4, align 4
  br label %12

12:                                               ; preds = %60, %0
  %13 = load i32, i32* %4, align 4
  %14 = load i32, i32* %3, align 4
  %15 = icmp slt i32 %13, %14
  br i1 %15, label %16, label %63

16:                                               ; preds = %12
  %17 = load i32, i32* %4, align 4
  %18 = sext i32 %17 to i64
  %19 = getelementptr inbounds [101 x i8], [101 x i8]* %2, i64 0, i64 %18
  %20 = load i8, i8* %19, align 1
  %21 = sext i8 %20 to i32
  %22 = icmp eq i32 %21, 32
  br i1 %22, label %23, label %59

23:                                               ; preds = %16
  %24 = load i32, i32* %4, align 4
  %25 = add nsw i32 %24, 1
  %26 = sext i32 %25 to i64
  %27 = getelementptr inbounds [101 x i8], [101 x i8]* %2, i64 0, i64 %26
  %28 = load i8, i8* %27, align 1
  %29 = sext i8 %28 to i32
  %30 = icmp eq i32 %29, 32
  br i1 %30, label %31, label %58

31:                                               ; preds = %23
  %32 = load i32, i32* %4, align 4
  store i32 %32, i32* %6, align 4
  br label %33

33:                                               ; preds = %47, %31
  %34 = load i32, i32* %6, align 4
  %35 = load i32, i32* %3, align 4
  %36 = sub nsw i32 %35, 1
  %37 = icmp slt i32 %34, %36
  br i1 %37, label %38, label %50

38:                                               ; preds = %33
  %39 = load i32, i32* %6, align 4
  %40 = add nsw i32 %39, 1
  %41 = sext i32 %40 to i64
  %42 = getelementptr inbounds [101 x i8], [101 x i8]* %2, i64 0, i64 %41
  %43 = load i8, i8* %42, align 1
  %44 = load i32, i32* %6, align 4
  %45 = sext i32 %44 to i64
  %46 = getelementptr inbounds [101 x i8], [101 x i8]* %2, i64 0, i64 %45
  store i8 %43, i8* %46, align 1
  br label %47

47:                                               ; preds = %38
  %48 = load i32, i32* %6, align 4
  %49 = add nsw i32 %48, 1
  store i32 %49, i32* %6, align 4
  br label %33

50:                                               ; preds = %33
  %51 = load i32, i32* %3, align 4
  %52 = add nsw i32 %51, -1
  store i32 %52, i32* %3, align 4
  %53 = load i32, i32* %4, align 4
  %54 = add nsw i32 %53, -1
  store i32 %54, i32* %4, align 4
  %55 = load i32, i32* %3, align 4
  %56 = sext i32 %55 to i64
  %57 = getelementptr inbounds [101 x i8], [101 x i8]* %2, i64 0, i64 %56
  store i8 0, i8* %57, align 1
  br label %58

58:                                               ; preds = %50, %23
  br label %59

59:                                               ; preds = %58, %16
  br label %60

60:                                               ; preds = %59
  %61 = load i32, i32* %4, align 4
  %62 = add nsw i32 %61, 1
  store i32 %62, i32* %4, align 4
  br label %12

63:                                               ; preds = %12
  %64 = getelementptr inbounds [101 x i8], [101 x i8]* %2, i64 0, i64 0
  %65 = call dereferenceable(272) %"class.std::basic_ostream"* @_ZStlsISt11char_traitsIcEERSt13basic_ostreamIcT_ES5_PKc(%"class.std::basic_ostream"* dereferenceable(272) @_ZSt4cout, i8* %64)
  ret i32 0
}

declare dso_local dereferenceable(280) %"class.std::basic_istream"* @_ZNSi7getlineEPcl(%"class.std::basic_istream"*, i8*, i64) #1

; Function Attrs: nounwind readonly
declare dso_local i64 @strlen(i8*) #5

declare dso_local dereferenceable(272) %"class.std::basic_ostream"* @_ZStlsISt11char_traitsIcEERSt13basic_ostreamIcT_ES5_PKc(%"class.std::basic_ostream"* dereferenceable(272), i8*) #1

; Function Attrs: noinline uwtable
define internal void @_GLOBAL__sub_I_506.cpp() #0 section ".text.startup" {
  call void @__cxx_global_var_init()
  ret void
}


!llvm.module.flags = !{!0}
!llvm.ident = !{!1}

!0 = !{i32 1, !"wchar_size", i32 4}
!1 = !{!"clang version 10.0.0-4ubuntu1 "}
