; ModuleID = 'source-C-CXX/25/506.cpp'
source_filename = "source-C-CXX/25/506.cpp"
target datalayout = "e-m:e-p270:32:32-p271:32:32-p272:64:64-i64:64-f80:128-n8:16:32:64-S128"
target triple = "x86_64-pc-linux-gnu"

%"class.std::ios_base::Init" = type { i8 }
%"class.std::basic_istream" = type { i32 (...)**, i64, %"class.std::basic_ios" }
%"class.std::basic_ios" = type { %"class.std::ios_base", %"class.std::basic_ostream"*, i8, i8, %"class.std::basic_streambuf"*, %"class.std::ctype"*, %"class.std::num_put"*, %"class.std::num_get"* }
%"class.std::ios_base" = type { i32 (...)**, i64, i64, i32, i32, i32, %"struct.std::ios_base::_Callback_list"*, %"struct.std::ios_base::_Words", [8 x %"struct.std::ios_base::_Words"], i32, %"struct.std::ios_base::_Words"*, %"class.std::locale" }
%"struct.std::ios_base::_Callback_list" = type { %"struct.std::ios_base::_Callback_list"*, void (i32, %"class.std::ios_base"*, i32)*, i32, i32 }
%"struct.std::ios_base::_Words" = type { i8*, i64 }
%"class.std::locale" = type { %"class.std::locale::_Impl"* }
%"class.std::locale::_Impl" = type { i32, %"class.std::locale::facet"**, i64, %"class.std::locale::facet"**, i8** }
%"class.std::locale::facet" = type <{ i32 (...)**, i32, [4 x i8] }>
%"class.std::basic_ostream" = type { i32 (...)**, %"class.std::basic_ios" }
%"class.std::basic_streambuf" = type { i32 (...)**, i8*, i8*, i8*, i8*, i8*, i8*, %"class.std::locale" }
%"class.std::ctype" = type <{ %"class.std::locale::facet.base", [4 x i8], %struct.__locale_struct*, i8, [7 x i8], i32*, i32*, i16*, i8, [256 x i8], [256 x i8], i8, [6 x i8] }>
%"class.std::locale::facet.base" = type <{ i32 (...)**, i32 }>
%struct.__locale_struct = type { [13 x %struct.__locale_data*], i16*, i32*, i32*, [13 x i8*] }
%struct.__locale_data = type opaque
%"class.std::num_put" = type { %"class.std::locale::facet.base", [4 x i8] }
%"class.std::num_get" = type { %"class.std::locale::facet.base", [4 x i8] }

@_ZStL8__ioinit = internal global %"class.std::ios_base::Init" zeroinitializer, align 1
@__dso_handle = external hidden global i8
@_ZSt3cin = external global %"class.std::basic_istream", align 8
@_ZSt4cout = external global %"class.std::basic_ostream", align 8
@llvm.global_ctors = appending global [1 x { i32, void ()*, i8* }] [{ i32, void ()*, i8* } { i32 65535, void ()* @_GLOBAL__sub_I_506.cpp, i8* null }]

declare void @_ZNSt8ios_base4InitC1Ev(%"class.std::ios_base::Init"* nonnull align 1 dereferenceable(1)) unnamed_addr #0

; Function Attrs: nounwind
declare void @_ZNSt8ios_base4InitD1Ev(%"class.std::ios_base::Init"* nonnull align 1 dereferenceable(1)) unnamed_addr #1

; Function Attrs: nofree nounwind
declare i32 @__cxa_atexit(void (i8*)*, i8*, i8*) local_unnamed_addr #2

; Function Attrs: mustprogress norecurse sspstrong uwtable
define dso_local i32 @main() local_unnamed_addr #3 {
  %1 = alloca [101 x i8], align 16
  %2 = getelementptr inbounds [101 x i8], [101 x i8]* %1, i64 0, i64 0
  call void @llvm.lifetime.start.p0i8(i64 101, i8* nonnull %2) #8
  %3 = load i8*, i8** bitcast (%"class.std::basic_istream"* @_ZSt3cin to i8**), align 8, !tbaa !5
  %4 = getelementptr i8, i8* %3, i64 -24
  %5 = bitcast i8* %4 to i64*
  %6 = load i64, i64* %5, align 8
  %7 = add nsw i64 %6, 240
  %8 = getelementptr inbounds i8, i8* bitcast (%"class.std::basic_istream"* @_ZSt3cin to i8*), i64 %7
  %9 = bitcast i8* %8 to %"class.std::ctype"**
  %10 = load %"class.std::ctype"*, %"class.std::ctype"** %9, align 8, !tbaa !8
  %11 = icmp eq %"class.std::ctype"* %10, null
  br i1 %11, label %12, label %13

12:                                               ; preds = %0
  tail call void @_ZSt16__throw_bad_castv() #9
  unreachable

13:                                               ; preds = %0
  %14 = getelementptr inbounds %"class.std::ctype", %"class.std::ctype"* %10, i64 0, i32 8
  %15 = load i8, i8* %14, align 8, !tbaa !13
  %16 = icmp eq i8 %15, 0
  br i1 %16, label %20, label %17

17:                                               ; preds = %13
  %18 = getelementptr inbounds %"class.std::ctype", %"class.std::ctype"* %10, i64 0, i32 9, i64 10
  %19 = load i8, i8* %18, align 1, !tbaa !15
  br label %26

20:                                               ; preds = %13
  tail call void @_ZNKSt5ctypeIcE13_M_widen_initEv(%"class.std::ctype"* nonnull align 8 dereferenceable(570) %10)
  %21 = bitcast %"class.std::ctype"* %10 to i8 (%"class.std::ctype"*, i8)***
  %22 = load i8 (%"class.std::ctype"*, i8)**, i8 (%"class.std::ctype"*, i8)*** %21, align 8, !tbaa !5
  %23 = getelementptr inbounds i8 (%"class.std::ctype"*, i8)*, i8 (%"class.std::ctype"*, i8)** %22, i64 6
  %24 = load i8 (%"class.std::ctype"*, i8)*, i8 (%"class.std::ctype"*, i8)** %23, align 8
  %25 = tail call signext i8 %24(%"class.std::ctype"* nonnull align 8 dereferenceable(570) %10, i8 signext 10)
  br label %26

26:                                               ; preds = %17, %20
  %27 = phi i8 [ %19, %17 ], [ %25, %20 ]
  %28 = call nonnull align 8 dereferenceable(16) %"class.std::basic_istream"* @_ZNSi7getlineEPclc(%"class.std::basic_istream"* nonnull align 8 dereferenceable(16) @_ZSt3cin, i8* nonnull %2, i64 101, i8 signext %27)
  %29 = call i64 @strlen(i8* noundef nonnull %2) #10
  %30 = trunc i64 %29 to i32
  %31 = icmp sgt i32 %30, 0
  br i1 %31, label %32, label %154

32:                                               ; preds = %26, %149
  %33 = phi i32 [ %151, %149 ], [ %30, %26 ]
  %34 = phi i32 [ %152, %149 ], [ 0, %26 ]
  %35 = sext i32 %34 to i64
  %36 = getelementptr inbounds [101 x i8], [101 x i8]* %1, i64 0, i64 %35
  %37 = load i8, i8* %36, align 1, !tbaa !15
  %38 = icmp eq i8 %37, 32
  br i1 %38, label %39, label %149

39:                                               ; preds = %32
  %40 = add nsw i32 %34, 1
  %41 = sext i32 %40 to i64
  %42 = getelementptr inbounds [101 x i8], [101 x i8]* %1, i64 0, i64 %41
  %43 = load i8, i8* %42, align 1, !tbaa !15
  %44 = icmp eq i8 %43, 32
  br i1 %44, label %45, label %149

45:                                               ; preds = %39
  %46 = add nsw i32 %33, -1
  %47 = icmp slt i32 %34, %46
  %48 = sext i32 %46 to i64
  br i1 %47, label %49, label %139

49:                                               ; preds = %45
  %50 = sub nsw i64 %48, %35
  %51 = icmp ult i64 %50, 8
  br i1 %51, label %137, label %52

52:                                               ; preds = %49
  %53 = icmp ult i64 %50, 32
  br i1 %53, label %116, label %54

54:                                               ; preds = %52
  %55 = and i64 %50, -32
  %56 = add nsw i64 %55, -32
  %57 = lshr exact i64 %56, 5
  %58 = add nuw nsw i64 %57, 1
  %59 = and i64 %58, 1
  %60 = icmp eq i64 %56, 0
  br i1 %60, label %94, label %61

61:                                               ; preds = %54
  %62 = and i64 %58, 1152921504606846974
  br label %63

63:                                               ; preds = %63, %61
  %64 = phi i64 [ 0, %61 ], [ %91, %63 ]
  %65 = phi i64 [ %62, %61 ], [ %92, %63 ]
  %66 = add i64 %64, %35
  %67 = add nsw i64 %66, 1
  %68 = getelementptr inbounds [101 x i8], [101 x i8]* %1, i64 0, i64 %67
  %69 = bitcast i8* %68 to <16 x i8>*
  %70 = load <16 x i8>, <16 x i8>* %69, align 1, !tbaa !15
  %71 = getelementptr inbounds i8, i8* %68, i64 16
  %72 = bitcast i8* %71 to <16 x i8>*
  %73 = load <16 x i8>, <16 x i8>* %72, align 1, !tbaa !15
  %74 = getelementptr inbounds [101 x i8], [101 x i8]* %1, i64 0, i64 %66
  %75 = bitcast i8* %74 to <16 x i8>*
  store <16 x i8> %70, <16 x i8>* %75, align 1, !tbaa !15
  %76 = getelementptr inbounds i8, i8* %74, i64 16
  %77 = bitcast i8* %76 to <16 x i8>*
  store <16 x i8> %73, <16 x i8>* %77, align 1, !tbaa !15
  %78 = or i64 %64, 32
  %79 = add i64 %78, %35
  %80 = add nsw i64 %79, 1
  %81 = getelementptr inbounds [101 x i8], [101 x i8]* %1, i64 0, i64 %80
  %82 = bitcast i8* %81 to <16 x i8>*
  %83 = load <16 x i8>, <16 x i8>* %82, align 1, !tbaa !15
  %84 = getelementptr inbounds i8, i8* %81, i64 16
  %85 = bitcast i8* %84 to <16 x i8>*
  %86 = load <16 x i8>, <16 x i8>* %85, align 1, !tbaa !15
  %87 = getelementptr inbounds [101 x i8], [101 x i8]* %1, i64 0, i64 %79
  %88 = bitcast i8* %87 to <16 x i8>*
  store <16 x i8> %83, <16 x i8>* %88, align 1, !tbaa !15
  %89 = getelementptr inbounds i8, i8* %87, i64 16
  %90 = bitcast i8* %89 to <16 x i8>*
  store <16 x i8> %86, <16 x i8>* %90, align 1, !tbaa !15
  %91 = add nuw i64 %64, 64
  %92 = add i64 %65, -2
  %93 = icmp eq i64 %92, 0
  br i1 %93, label %94, label %63, !llvm.loop !16

94:                                               ; preds = %63, %54
  %95 = phi i64 [ 0, %54 ], [ %91, %63 ]
  %96 = icmp eq i64 %59, 0
  br i1 %96, label %110, label %97

97:                                               ; preds = %94
  %98 = add i64 %95, %35
  %99 = add nsw i64 %98, 1
  %100 = getelementptr inbounds [101 x i8], [101 x i8]* %1, i64 0, i64 %99
  %101 = bitcast i8* %100 to <16 x i8>*
  %102 = load <16 x i8>, <16 x i8>* %101, align 1, !tbaa !15
  %103 = getelementptr inbounds i8, i8* %100, i64 16
  %104 = bitcast i8* %103 to <16 x i8>*
  %105 = load <16 x i8>, <16 x i8>* %104, align 1, !tbaa !15
  %106 = getelementptr inbounds [101 x i8], [101 x i8]* %1, i64 0, i64 %98
  %107 = bitcast i8* %106 to <16 x i8>*
  store <16 x i8> %102, <16 x i8>* %107, align 1, !tbaa !15
  %108 = getelementptr inbounds i8, i8* %106, i64 16
  %109 = bitcast i8* %108 to <16 x i8>*
  store <16 x i8> %105, <16 x i8>* %109, align 1, !tbaa !15
  br label %110

110:                                              ; preds = %94, %97
  %111 = icmp eq i64 %50, %55
  br i1 %111, label %139, label %112

112:                                              ; preds = %110
  %113 = add nsw i64 %55, %35
  %114 = and i64 %50, 24
  %115 = icmp eq i64 %114, 0
  br i1 %115, label %137, label %116

116:                                              ; preds = %52, %112
  %117 = phi i64 [ %55, %112 ], [ 0, %52 ]
  %118 = add i32 %33, -1
  %119 = sext i32 %118 to i64
  %120 = sext i32 %34 to i64
  %121 = sub nsw i64 %119, %120
  %122 = and i64 %121, -8
  %123 = add nsw i64 %122, %35
  br label %124

124:                                              ; preds = %124, %116
  %125 = phi i64 [ %117, %116 ], [ %133, %124 ]
  %126 = add i64 %125, %35
  %127 = add nsw i64 %126, 1
  %128 = getelementptr inbounds [101 x i8], [101 x i8]* %1, i64 0, i64 %127
  %129 = bitcast i8* %128 to <8 x i8>*
  %130 = load <8 x i8>, <8 x i8>* %129, align 1, !tbaa !15
  %131 = getelementptr inbounds [101 x i8], [101 x i8]* %1, i64 0, i64 %126
  %132 = bitcast i8* %131 to <8 x i8>*
  store <8 x i8> %130, <8 x i8>* %132, align 1, !tbaa !15
  %133 = add nuw i64 %125, 8
  %134 = icmp eq i64 %133, %122
  br i1 %134, label %135, label %124, !llvm.loop !19

135:                                              ; preds = %124
  %136 = icmp eq i64 %121, %122
  br i1 %136, label %139, label %137

137:                                              ; preds = %49, %112, %135
  %138 = phi i64 [ %35, %49 ], [ %113, %112 ], [ %123, %135 ]
  br label %142

139:                                              ; preds = %142, %110, %135, %45
  %140 = add nsw i32 %34, -1
  %141 = getelementptr inbounds [101 x i8], [101 x i8]* %1, i64 0, i64 %48
  store i8 0, i8* %141, align 1, !tbaa !15
  br label %149

142:                                              ; preds = %137, %142
  %143 = phi i64 [ %144, %142 ], [ %138, %137 ]
  %144 = add nsw i64 %143, 1
  %145 = getelementptr inbounds [101 x i8], [101 x i8]* %1, i64 0, i64 %144
  %146 = load i8, i8* %145, align 1, !tbaa !15
  %147 = getelementptr inbounds [101 x i8], [101 x i8]* %1, i64 0, i64 %143
  store i8 %146, i8* %147, align 1, !tbaa !15
  %148 = icmp eq i64 %144, %48
  br i1 %148, label %139, label %142, !llvm.loop !20

149:                                              ; preds = %32, %139, %39
  %150 = phi i32 [ %140, %139 ], [ %34, %39 ], [ %34, %32 ]
  %151 = phi i32 [ %46, %139 ], [ %33, %39 ], [ %33, %32 ]
  %152 = add nsw i32 %150, 1
  %153 = icmp slt i32 %152, %151
  br i1 %153, label %32, label %154, !llvm.loop !22

154:                                              ; preds = %149, %26
  %155 = call i64 @strlen(i8* noundef nonnull dereferenceable(1) %2) #8
  %156 = call nonnull align 8 dereferenceable(8) %"class.std::basic_ostream"* @_ZSt16__ostream_insertIcSt11char_traitsIcEERSt13basic_ostreamIT_T0_ES6_PKS3_l(%"class.std::basic_ostream"* nonnull align 8 dereferenceable(8) @_ZSt4cout, i8* nonnull %2, i64 %155)
  call void @llvm.lifetime.end.p0i8(i64 101, i8* nonnull %2) #8
  ret i32 0
}

; Function Attrs: argmemonly mustprogress nofree nosync nounwind willreturn
declare void @llvm.lifetime.start.p0i8(i64 immarg, i8* nocapture) #4

; Function Attrs: argmemonly mustprogress nofree nounwind readonly willreturn
declare i64 @strlen(i8* nocapture) local_unnamed_addr #5

; Function Attrs: argmemonly mustprogress nofree nosync nounwind willreturn
declare void @llvm.lifetime.end.p0i8(i64 immarg, i8* nocapture) #4

declare nonnull align 8 dereferenceable(16) %"class.std::basic_istream"* @_ZNSi7getlineEPclc(%"class.std::basic_istream"* nonnull align 8 dereferenceable(16), i8*, i64, i8 signext) local_unnamed_addr #0

; Function Attrs: noreturn
declare void @_ZSt16__throw_bad_castv() local_unnamed_addr #6

declare void @_ZNKSt5ctypeIcE13_M_widen_initEv(%"class.std::ctype"* nonnull align 8 dereferenceable(570)) local_unnamed_addr #0

declare nonnull align 8 dereferenceable(8) %"class.std::basic_ostream"* @_ZSt16__ostream_insertIcSt11char_traitsIcEERSt13basic_ostreamIT_T0_ES6_PKS3_l(%"class.std::basic_ostream"* nonnull align 8 dereferenceable(8), i8*, i64) local_unnamed_addr #0

; Function Attrs: sspstrong uwtable
define internal void @_GLOBAL__sub_I_506.cpp() #7 section ".text.startup" {
  tail call void @_ZNSt8ios_base4InitC1Ev(%"class.std::ios_base::Init"* nonnull align 1 dereferenceable(1) @_ZStL8__ioinit)
  %1 = tail call i32 @__cxa_atexit(void (i8*)* bitcast (void (%"class.std::ios_base::Init"*)* @_ZNSt8ios_base4InitD1Ev to void (i8*)*), i8* getelementptr inbounds (%"class.std::ios_base::Init", %"class.std::ios_base::Init"* @_ZStL8__ioinit, i64 0, i32 0), i8* nonnull @__dso_handle) #8
  ret void
}


!llvm.module.flags = !{!0, !1, !2, !3}
!llvm.ident = !{!4}

!0 = !{i32 1, !"wchar_size", i32 4}
!1 = !{i32 7, !"PIC Level", i32 2}
!2 = !{i32 7, !"PIE Level", i32 2}
!3 = !{i32 7, !"uwtable", i32 1}
!4 = !{!"clang version 13.0.0"}
!5 = !{!6, !6, i64 0}
!6 = !{!"vtable pointer", !7, i64 0}
!7 = !{!"Simple C++ TBAA"}
!8 = !{!9, !10, i64 240}
!9 = !{!"_ZTSSt9basic_iosIcSt11char_traitsIcEE", !10, i64 216, !11, i64 224, !12, i64 225, !10, i64 232, !10, i64 240, !10, i64 248, !10, i64 256}
!10 = !{!"any pointer", !11, i64 0}
!11 = !{!"omnipotent char", !7, i64 0}
!12 = !{!"bool", !11, i64 0}
!13 = !{!14, !11, i64 56}
!14 = !{!"_ZTSSt5ctypeIcE", !10, i64 16, !12, i64 24, !10, i64 32, !10, i64 40, !10, i64 48, !11, i64 56, !11, i64 57, !11, i64 313, !11, i64 569}
!15 = !{!11, !11, i64 0}
!16 = distinct !{!16, !17, !18}
!17 = !{!"llvm.loop.mustprogress"}
!18 = !{!"llvm.loop.isvectorized", i32 1}
!19 = distinct !{!19, !17, !18}
!20 = distinct !{!20, !17, !21, !18}
!21 = !{!"llvm.loop.unroll.runtime.disable"}
!22 = distinct !{!22, !17}
